target datalayout = "e-m:e-p270:32:32-p271:32:32-p272:64:64-i64:64-i128:128-f80:128-n8:16:32:64-S128"
target triple = "x86_64-pc-linux-gnu"

%struct.SparseMatrix_struct = type { i32, i32, i32, i32, i32, ptr, ptr, ptr, i32, i8, i64 }

; Function Attrs: nounwind uwtable
define void @SparseMatrix_multiply_dense(ptr noundef %0, ptr noundef %1, ptr noundef %2, i32 noundef %3) #0 {
  %5 = alloca ptr, align 8
  %6 = alloca ptr, align 8
  %7 = alloca ptr, align 8
  %8 = alloca i32, align 4
  %9 = alloca i32, align 4
  %10 = alloca i32, align 4
  %11 = alloca i32, align 4
  %12 = alloca ptr, align 8
  %13 = alloca ptr, align 8
  %14 = alloca i32, align 4
  %15 = alloca ptr, align 8
  store ptr %0, ptr %5, align 8, !tbaa !3
  store ptr %1, ptr %6, align 8, !tbaa !28
  store ptr %2, ptr %7, align 8, !tbaa !28
  store i32 %3, ptr %8, align 4, !tbaa !17
  call void @llvm.lifetime.start.p0(i64 4, ptr %9) #11
  call void @llvm.lifetime.start.p0(i64 4, ptr %10) #11
  call void @llvm.lifetime.start.p0(i64 4, ptr %11) #11
  call void @llvm.lifetime.start.p0(i64 8, ptr %12) #11
  call void @llvm.lifetime.start.p0(i64 8, ptr %13) #11
  call void @llvm.lifetime.start.p0(i64 4, ptr %14) #11
  call void @llvm.lifetime.start.p0(i64 8, ptr %15) #11
  %16 = load ptr, ptr %5, align 8, !tbaa !3
  %17 = getelementptr inbounds nuw %struct.SparseMatrix_struct, ptr %16, i32 0, i32 7
  %18 = load ptr, ptr %17, align 8, !tbaa !27
  store ptr %18, ptr %15, align 8, !tbaa !28
  %19 = load ptr, ptr %5, align 8, !tbaa !3
  %20 = getelementptr inbounds nuw %struct.SparseMatrix_struct, ptr %19, i32 0, i32 5
  %21 = load ptr, ptr %20, align 8, !tbaa !8
  store ptr %21, ptr %12, align 8, !tbaa !14
  %22 = load ptr, ptr %5, align 8, !tbaa !3
  %23 = getelementptr inbounds nuw %struct.SparseMatrix_struct, ptr %22, i32 0, i32 6
  %24 = load ptr, ptr %23, align 8, !tbaa !15
  store ptr %24, ptr %13, align 8, !tbaa !14
  %25 = load ptr, ptr %5, align 8, !tbaa !3
  %26 = getelementptr inbounds nuw %struct.SparseMatrix_struct, ptr %25, i32 0, i32 0
  %27 = load i32, ptr %26, align 8, !tbaa !18
  store i32 %27, ptr %14, align 4, !tbaa !17
  store i32 0, ptr %9, align 4, !tbaa !17
  br label %28

28:                                               ; preds = %106, %4
  %29 = load i32, ptr %9, align 4, !tbaa !17
  %30 = load i32, ptr %14, align 4, !tbaa !17
  %31 = icmp slt i32 %29, %30
  br i1 %31, label %32, label %109

32:                                               ; preds = %28
  store i32 0, ptr %11, align 4, !tbaa !17
  br label %33

33:                                               ; preds = %46, %32
  %34 = load i32, ptr %11, align 4, !tbaa !17
  %35 = load i32, ptr %8, align 4, !tbaa !17
  %36 = icmp slt i32 %34, %35
  br i1 %36, label %37, label %49

37:                                               ; preds = %33
  %38 = load ptr, ptr %7, align 8, !tbaa !28
  %39 = load i32, ptr %9, align 4, !tbaa !17
  %40 = load i32, ptr %8, align 4, !tbaa !17
  %41 = mul nsw i32 %39, %40
  %42 = load i32, ptr %11, align 4, !tbaa !17
  %43 = add nsw i32 %41, %42
  %44 = sext i32 %43 to i64
  %45 = getelementptr inbounds double, ptr %38, i64 %44
  store double 0.000000e+00, ptr %45, align 8, !tbaa !30
  br label %46

46:                                               ; preds = %37
  %47 = load i32, ptr %11, align 4, !tbaa !17
  %48 = add nsw i32 %47, 1
  store i32 %48, ptr %11, align 4, !tbaa !17
  br label %33, !llvm.loop !122

49:                                               ; preds = %33
  %50 = load ptr, ptr %12, align 8, !tbaa !14
  %51 = load i32, ptr %9, align 4, !tbaa !17
  %52 = sext i32 %51 to i64
  %53 = getelementptr inbounds i32, ptr %50, i64 %52
  %54 = load i32, ptr %53, align 4, !tbaa !17
  store i32 %54, ptr %10, align 4, !tbaa !17
  br label %55

55:                                               ; preds = %102, %49
  %56 = load i32, ptr %10, align 4, !tbaa !17
  %57 = load ptr, ptr %12, align 8, !tbaa !14
  %58 = load i32, ptr %9, align 4, !tbaa !17
  %59 = add nsw i32 %58, 1
  %60 = sext i32 %59 to i64
  %61 = getelementptr inbounds i32, ptr %57, i64 %60
  %62 = load i32, ptr %61, align 4, !tbaa !17
  %63 = icmp slt i32 %56, %62
  br i1 %63, label %64, label %105

64:                                               ; preds = %55
  store i32 0, ptr %11, align 4, !tbaa !17
  br label %65

65:                                               ; preds = %98, %64
  %66 = load i32, ptr %11, align 4, !tbaa !17
  %67 = load i32, ptr %8, align 4, !tbaa !17
  %68 = icmp slt i32 %66, %67
  br i1 %68, label %69, label %101

69:                                               ; preds = %65
  %70 = load ptr, ptr %15, align 8, !tbaa !28
  %71 = load i32, ptr %10, align 4, !tbaa !17
  %72 = sext i32 %71 to i64
  %73 = getelementptr inbounds double, ptr %70, i64 %72
  %74 = load double, ptr %73, align 8, !tbaa !30
  %75 = load ptr, ptr %6, align 8, !tbaa !28
  %76 = load ptr, ptr %13, align 8, !tbaa !14
  %77 = load i32, ptr %10, align 4, !tbaa !17
  %78 = sext i32 %77 to i64
  %79 = getelementptr inbounds i32, ptr %76, i64 %78
  %80 = load i32, ptr %79, align 4, !tbaa !17
  %81 = load i32, ptr %8, align 4, !tbaa !17
  %82 = mul nsw i32 %80, %81
  %83 = load i32, ptr %11, align 4, !tbaa !17
  %84 = add nsw i32 %82, %83
  %85 = sext i32 %84 to i64
  %86 = getelementptr inbounds double, ptr %75, i64 %85
  %87 = load double, ptr %86, align 8, !tbaa !30
  %88 = load ptr, ptr %7, align 8, !tbaa !28
  %89 = load i32, ptr %9, align 4, !tbaa !17
  %90 = load i32, ptr %8, align 4, !tbaa !17
  %91 = mul nsw i32 %89, %90
  %92 = load i32, ptr %11, align 4, !tbaa !17
  %93 = add nsw i32 %91, %92
  %94 = sext i32 %93 to i64
  %95 = getelementptr inbounds double, ptr %88, i64 %94
  %96 = load double, ptr %95, align 8, !tbaa !30
  %97 = call double @llvm.fmuladd.f64(double %74, double %87, double %96)
  store double %97, ptr %95, align 8, !tbaa !30
  br label %98

98:                                               ; preds = %69
  %99 = load i32, ptr %11, align 4, !tbaa !17
  %100 = add nsw i32 %99, 1
  store i32 %100, ptr %11, align 4, !tbaa !17
  br label %65, !llvm.loop !123

101:                                              ; preds = %65
  br label %102

102:                                              ; preds = %101
  %103 = load i32, ptr %10, align 4, !tbaa !17
  %104 = add nsw i32 %103, 1
  store i32 %104, ptr %10, align 4, !tbaa !17
  br label %55, !llvm.loop !124

105:                                              ; preds = %55
  br label %106

106:                                              ; preds = %105
  %107 = load i32, ptr %9, align 4, !tbaa !17
  %108 = add nsw i32 %107, 1
  store i32 %108, ptr %9, align 4, !tbaa !17
  br label %28, !llvm.loop !125

109:                                              ; preds = %28
  call void @llvm.lifetime.end.p0(i64 8, ptr %15) #11
  call void @llvm.lifetime.end.p0(i64 4, ptr %14) #11
  call void @llvm.lifetime.end.p0(i64 8, ptr %13) #11
  call void @llvm.lifetime.end.p0(i64 8, ptr %12) #11
  call void @llvm.lifetime.end.p0(i64 4, ptr %11) #11
  call void @llvm.lifetime.end.p0(i64 4, ptr %10) #11
  call void @llvm.lifetime.end.p0(i64 4, ptr %9) #11
  ret void
}