; Function Attrs: nofree norecurse nosync nounwind memory(read, argmem: readwrite, inaccessiblemem: none) uwtable
define void @SparseMatrix_multiply_dense(ptr noundef readonly captures(none) %0, ptr noundef readonly captures(none) %1, ptr noundef captures(none) %2, i32 noundef %3) local_unnamed_addr #7 {
  %5 = getelementptr inbounds nuw i8, ptr %0, i64 40
  %6 = load ptr, ptr %5, align 8, !tbaa !13
  %7 = getelementptr inbounds nuw i8, ptr %0, i64 24
  %8 = load ptr, ptr %7, align 8, !tbaa !3
  %9 = getelementptr inbounds nuw i8, ptr %0, i64 32
  %10 = load ptr, ptr %9, align 8, !tbaa !12
  %11 = load i32, ptr %0, align 8, !tbaa !15
  %12 = icmp sgt i32 %11, 0
  %13 = icmp sgt i32 %3, 0
  %or.cond = and i1 %12, %13
  br i1 %or.cond, label %.preheader37.us.us.preheader, label %._crit_edge44

.preheader37.us.us.preheader:                     ; preds = %4
  %14 = zext nneg i32 %3 to i64
  %15 = shl nuw nsw i64 %14, 3
  %16 = zext nneg i32 %3 to i64
  %wide.trip.count62 = zext nneg i32 %11 to i64
  %.pre = load i32, ptr %8, align 4, !tbaa !19
  br label %.preheader37.us.us

.preheader37.us.us:                               ; preds = %.preheader37.us.us.preheader, %.loopexit.us.us
  %17 = phi i32 [ %.pre, %.preheader37.us.us.preheader ], [ %20, %.loopexit.us.us ]
  %indvar = phi i64 [ 0, %.preheader37.us.us.preheader ], [ %indvar.next, %.loopexit.us.us ]
  %18 = mul i64 %15, %indvar
  %scevgep = getelementptr i8, ptr %2, i64 %18
  tail call void @llvm.memset.p0.i64(ptr align 8 %scevgep, i8 0, i64 %15, i1 false), !tbaa !25
  %indvar.next = add nuw nsw i64 %indvar, 1
  %19 = getelementptr inbounds nuw i32, ptr %8, i64 %indvar.next
  %20 = load i32, ptr %19, align 4, !tbaa !19
  %21 = icmp slt i32 %17, %20
  br i1 %21, label %.preheader.lr.ph.us.us, label %.loopexit.us.us

.loopexit.us.us:                                  ; preds = %._crit_edge41.us.us.us, %.preheader37.us.us
  %exitcond63.not = icmp eq i64 %indvar.next, %wide.trip.count62
  br i1 %exitcond63.not, label %._crit_edge44, label %.preheader37.us.us, !llvm.loop !108

.preheader.lr.ph.us.us:                           ; preds = %.preheader37.us.us
  %22 = mul nuw nsw i64 %indvar, %16
  %23 = sext i32 %17 to i64
  %wide.trip.count59 = sext i32 %20 to i64
  %invariant.gep64 = getelementptr inbounds nuw double, ptr %2, i64 %22
  br label %.preheader.us.us.us

.preheader.us.us.us:                              ; preds = %._crit_edge41.us.us.us, %.preheader.lr.ph.us.us
  %indvars.iv56 = phi i64 [ %indvars.iv.next57, %._crit_edge41.us.us.us ], [ %23, %.preheader.lr.ph.us.us ]
  %24 = getelementptr inbounds double, ptr %6, i64 %indvars.iv56
  %25 = getelementptr inbounds i32, ptr %10, i64 %indvars.iv56
  %26 = load i32, ptr %25, align 4, !tbaa !19
  %27 = mul nsw i32 %26, %3
  %28 = sext i32 %27 to i64
  %invariant.gep = getelementptr double, ptr %1, i64 %28
  br label %29

29:                                               ; preds = %29, %.preheader.us.us.us
  %indvars.iv = phi i64 [ %indvars.iv.next, %29 ], [ 0, %.preheader.us.us.us ]
  %30 = load double, ptr %24, align 8, !tbaa !25
  %gep = getelementptr double, ptr %invariant.gep, i64 %indvars.iv
  %31 = load double, ptr %gep, align 8, !tbaa !25
  %gep65 = getelementptr inbounds nuw double, ptr %invariant.gep64, i64 %indvars.iv
  %32 = load double, ptr %gep65, align 8, !tbaa !25
  %33 = tail call double @llvm.fmuladd.f64(double %30, double %31, double %32)
  store double %33, ptr %gep65, align 8, !tbaa !25
  %indvars.iv.next = add nuw nsw i64 %indvars.iv, 1
  %exitcond.not = icmp eq i64 %indvars.iv.next, %14
  br i1 %exitcond.not, label %._crit_edge41.us.us.us, label %29, !llvm.loop !109

._crit_edge41.us.us.us:                           ; preds = %29
  %indvars.iv.next57 = add nsw i64 %indvars.iv56, 1
  %exitcond60.not = icmp eq i64 %indvars.iv.next57, %wide.trip.count59
  br i1 %exitcond60.not, label %.loopexit.us.us, label %.preheader.us.us.us, !llvm.loop !110

._crit_edge44:                                    ; preds = %.loopexit.us.us, %4
  ret void
}